target datalayout = "e-m:e-p270:32:32-p271:32:32-p272:64:64-i64:64-i128:128-f80:128-n8:16:32:64-S128"
target triple = "x86_64-pc-linux-gnu"

%struct.Expr = type { i32 }
%struct.List = type { i32, i32, i32, ptr, [0 x %union.ListCell] }
%union.ListCell = type { ptr }
%struct.RowCompareExpr = type { %struct.Expr, i32, ptr, ptr, ptr, ptr, ptr }

; Function Attrs: inlinehint nounwind uwtable
define internal ptr @list_nth_cell(ptr noundef %0, i32 noundef %1) #1 {
  %3 = alloca ptr, align 8
  %4 = alloca i32, align 4
  store ptr %0, ptr %3, align 8
  store i32 %1, ptr %4, align 4
  %5 = load ptr, ptr %3, align 8
  %6 = getelementptr inbounds nuw %struct.List, ptr %5, i32 0, i32 3
  %7 = load ptr, ptr %6, align 8
  %8 = load i32, ptr %4, align 4
  %9 = sext i32 %8 to i64
  %10 = getelementptr inbounds %union.ListCell, ptr %7, i64 %9
  ret ptr %10
}

; Function Attrs: nounwind uwtable
define dso_local double @rowcomparesel(ptr noundef %0, ptr noundef %1, i32 noundef %2, i32 noundef %3, ptr noundef %4) #0 {
  %6 = alloca ptr, align 8
  %7 = alloca ptr, align 8
  %8 = alloca i32, align 4
  %9 = alloca i32, align 4
  %10 = alloca ptr, align 8
  %11 = alloca double, align 8
  %12 = alloca i32, align 4
  %13 = alloca i32, align 4
  %14 = alloca ptr, align 8
  %15 = alloca i8, align 1
  %16 = alloca %union.ListCell, align 8
  %17 = alloca %union.ListCell, align 8
  store ptr %0, ptr %6, align 8
  store ptr %1, ptr %7, align 8
  store i32 %2, ptr %8, align 4
  store i32 %3, ptr %9, align 4
  store ptr %4, ptr %10, align 8
  call void @llvm.lifetime.start.p0(i64 8, ptr %11) #10
  call void @llvm.lifetime.start.p0(i64 4, ptr %12) #10
  %18 = load ptr, ptr %7, align 8
  %19 = getelementptr inbounds nuw %struct.RowCompareExpr, ptr %18, i32 0, i32 2
  %20 = load ptr, ptr %19, align 8
  %21 = call ptr @list_nth_cell(ptr noundef %20, i32 noundef 0)
  %22 = load i32, ptr %21, align 8
  store i32 %22, ptr %12, align 4
  call void @llvm.lifetime.start.p0(i64 4, ptr %13) #10
  %23 = load ptr, ptr %7, align 8
  %24 = getelementptr inbounds nuw %struct.RowCompareExpr, ptr %23, i32 0, i32 4
  %25 = load ptr, ptr %24, align 8
  %26 = call ptr @list_nth_cell(ptr noundef %25, i32 noundef 0)
  %27 = load i32, ptr %26, align 8
  store i32 %27, ptr %13, align 4
  call void @llvm.lifetime.start.p0(i64 8, ptr %14) #10
  call void @llvm.lifetime.start.p0(i64 1, ptr %15) #10
  %28 = load ptr, ptr %7, align 8
  %29 = getelementptr inbounds nuw %struct.RowCompareExpr, ptr %28, i32 0, i32 5
  %30 = load ptr, ptr %29, align 8
  %31 = call ptr @list_nth_cell(ptr noundef %30, i32 noundef 0)
  %32 = load ptr, ptr %31, align 8
  store ptr %32, ptr %16, align 8
  %33 = load ptr, ptr %7, align 8
  %34 = getelementptr inbounds nuw %struct.RowCompareExpr, ptr %33, i32 0, i32 6
  %35 = load ptr, ptr %34, align 8
  %36 = call ptr @list_nth_cell(ptr noundef %35, i32 noundef 0)
  %37 = load ptr, ptr %36, align 8
  store ptr %37, ptr %17, align 8
  %38 = getelementptr inbounds nuw %union.ListCell, ptr %16, i32 0, i32 0
  %39 = load ptr, ptr %38, align 8
  %40 = getelementptr inbounds nuw %union.ListCell, ptr %17, i32 0, i32 0
  %41 = load ptr, ptr %40, align 8
  %42 = call ptr @list_make2_impl(i32 noundef 1, ptr %39, ptr %41)
  store ptr %42, ptr %14, align 8
  %43 = load i32, ptr %8, align 4
  %44 = icmp ne i32 %43, 0
  br i1 %44, label %45, label %46

45:                                               ; preds = %5
  store i8 0, ptr %15, align 1
  br label %57

46:                                               ; preds = %5
  %47 = load ptr, ptr %10, align 8
  %48 = icmp eq ptr %47, null
  br i1 %48, label %49, label %50

49:                                               ; preds = %46
  store i8 0, ptr %15, align 1
  br label %56

50:                                               ; preds = %46
  %51 = load ptr, ptr %6, align 8
  %52 = load ptr, ptr %14, align 8
  %53 = call i32 @NumRelids(ptr noundef %51, ptr noundef %52)
  %54 = icmp sgt i32 %53, 1
  %55 = zext i1 %54 to i8
  store i8 %55, ptr %15, align 1
  br label %56

56:                                               ; preds = %50, %49
  br label %57

57:                                               ; preds = %56, %45
  %58 = load i8, ptr %15, align 1, !range !4, !noundef !5
  %59 = trunc i8 %58 to i1
  br i1 %59, label %60, label %68

60:                                               ; preds = %57
  %61 = load ptr, ptr %6, align 8
  %62 = load i32, ptr %12, align 4
  %63 = load ptr, ptr %14, align 8
  %64 = load i32, ptr %13, align 4
  %65 = load i32, ptr %9, align 4
  %66 = load ptr, ptr %10, align 8
  %67 = call double @join_selectivity(ptr noundef %61, i32 noundef %62, ptr noundef %63, i32 noundef %64, i32 noundef %65, ptr noundef %66)
  store double %67, ptr %11, align 8
  br label %75

68:                                               ; preds = %57
  %69 = load ptr, ptr %6, align 8
  %70 = load i32, ptr %12, align 4
  %71 = load ptr, ptr %14, align 8
  %72 = load i32, ptr %13, align 4
  %73 = load i32, ptr %8, align 4
  %74 = call double @restriction_selectivity(ptr noundef %69, i32 noundef %70, ptr noundef %71, i32 noundef %72, i32 noundef %73)
  store double %74, ptr %11, align 8
  br label %75

75:                                               ; preds = %68, %60
  %76 = load double, ptr %11, align 8
  call void @llvm.lifetime.end.p0(i64 1, ptr %15) #10
  call void @llvm.lifetime.end.p0(i64 8, ptr %14) #10
  call void @llvm.lifetime.end.p0(i64 4, ptr %13) #10
  call void @llvm.lifetime.end.p0(i64 4, ptr %12) #10
  call void @llvm.lifetime.end.p0(i64 8, ptr %11) #10
  ret double %76
}