; Function Attrs: nounwind uwtable
define dso_local double @rowcomparesel(ptr noundef %0, ptr noundef readonly captures(none) %1, i32 noundef %2, i32 noundef %3, ptr noundef %4) local_unnamed_addr #0 {
  %6 = getelementptr inbounds nuw i8, ptr %1, i64 8
  %7 = load ptr, ptr %6, align 8
  %8 = getelementptr i8, ptr %7, i64 16
  %.val24 = load ptr, ptr %8, align 8
  %9 = load i32, ptr %.val24, align 8
  %10 = getelementptr inbounds nuw i8, ptr %1, i64 24
  %11 = load ptr, ptr %10, align 8
  %12 = getelementptr i8, ptr %11, i64 16
  %.val23 = load ptr, ptr %12, align 8
  %13 = load i32, ptr %.val23, align 8
  %14 = getelementptr inbounds nuw i8, ptr %1, i64 32
  %15 = load ptr, ptr %14, align 8
  %16 = getelementptr i8, ptr %15, i64 16
  %.val22 = load ptr, ptr %16, align 8
  %17 = load ptr, ptr %.val22, align 8
  %18 = getelementptr inbounds nuw i8, ptr %1, i64 40
  %19 = load ptr, ptr %18, align 8
  %20 = getelementptr i8, ptr %19, i64 16
  %.val = load ptr, ptr %20, align 8
  %21 = load ptr, ptr %.val, align 8
  %22 = tail call ptr @list_make2_impl(i32 noundef 1, ptr %17, ptr %21) #12
  %.not = icmp ne i32 %2, 0
  %23 = icmp eq ptr %4, null
  %or.cond = or i1 %.not, %23
  br i1 %or.cond, label %.critedge, label %24

24:                                               ; preds = %5
  %25 = tail call i32 @NumRelids(ptr noundef %0, ptr noundef %22) #12
  %26 = icmp sgt i32 %25, 1
  br i1 %26, label %27, label %.critedge

27:                                               ; preds = %24
  %28 = tail call double @join_selectivity(ptr noundef %0, i32 noundef %9, ptr noundef %22, i32 noundef %13, i32 noundef %3, ptr noundef nonnull %4) #12
  br label %30

.critedge:                                        ; preds = %5, %24
  %29 = tail call double @restriction_selectivity(ptr noundef %0, i32 noundef %9, ptr noundef %22, i32 noundef %13, i32 noundef %2) #12
  br label %30

30:                                               ; preds = %.critedge, %27
  %.0 = phi double [ %28, %27 ], [ %29, %.critedge ]
  ret double %.0
}